target datalayout = "e-m:e-p270:32:32-p271:32:32-p272:64:64-i64:64-i128:128-f80:128-n8:16:32:64-S128"
target triple = "x86_64-pc-linux-gnu"

%struct.VP9DSPContext = type { [4 x [15 x ptr]], [5 x [4 x ptr]], [3 x [2 x ptr]], [2 x ptr], [2 x [2 x [2 x ptr]]], [5 x [4 x [2 x [2 x [2 x ptr]]]]], [5 x [4 x [2 x ptr]]] }

; Function Attrs: cold nounwind optsize uwtable
define internal void @ff_vp9dsp_intrapred_init_12(ptr noundef %0) #0 {
  %2 = alloca ptr, align 8
  store ptr %0, ptr %2, align 8, !tbaa !4
  %3 = load ptr, ptr %2, align 8, !tbaa !4
  call void @ff_vp9dsp_intrapred_init_10(ptr noundef %3)
  %4 = load ptr, ptr %2, align 8, !tbaa !4
  %5 = getelementptr inbounds nuw %struct.VP9DSPContext, ptr %4, i32 0, i32 0
  %6 = getelementptr inbounds [4 x [15 x ptr]], ptr %5, i64 0, i64 0
  %7 = getelementptr inbounds [15 x ptr], ptr %6, i64 0, i64 9
  store ptr @tm_4x4_c, ptr %7, align 8, !tbaa !9
  %8 = load ptr, ptr %2, align 8, !tbaa !4
  %9 = getelementptr inbounds nuw %struct.VP9DSPContext, ptr %8, i32 0, i32 0
  %10 = getelementptr inbounds [4 x [15 x ptr]], ptr %9, i64 0, i64 0
  %11 = getelementptr inbounds [15 x ptr], ptr %10, i64 0, i64 12
  store ptr @dc_128_4x4_c, ptr %11, align 8, !tbaa !9
  %12 = load ptr, ptr %2, align 8, !tbaa !4
  %13 = getelementptr inbounds nuw %struct.VP9DSPContext, ptr %12, i32 0, i32 0
  %14 = getelementptr inbounds [4 x [15 x ptr]], ptr %13, i64 0, i64 0
  %15 = getelementptr inbounds [15 x ptr], ptr %14, i64 0, i64 13
  store ptr @dc_127_4x4_c, ptr %15, align 8, !tbaa !9
  %16 = load ptr, ptr %2, align 8, !tbaa !4
  %17 = getelementptr inbounds nuw %struct.VP9DSPContext, ptr %16, i32 0, i32 0
  %18 = getelementptr inbounds [4 x [15 x ptr]], ptr %17, i64 0, i64 0
  %19 = getelementptr inbounds [15 x ptr], ptr %18, i64 0, i64 14
  store ptr @dc_129_4x4_c, ptr %19, align 8, !tbaa !9
  %20 = load ptr, ptr %2, align 8, !tbaa !4
  %21 = getelementptr inbounds nuw %struct.VP9DSPContext, ptr %20, i32 0, i32 0
  %22 = getelementptr inbounds [4 x [15 x ptr]], ptr %21, i64 0, i64 1
  %23 = getelementptr inbounds [15 x ptr], ptr %22, i64 0, i64 9
  store ptr @tm_8x8_c, ptr %23, align 8, !tbaa !9
  %24 = load ptr, ptr %2, align 8, !tbaa !4
  %25 = getelementptr inbounds nuw %struct.VP9DSPContext, ptr %24, i32 0, i32 0
  %26 = getelementptr inbounds [4 x [15 x ptr]], ptr %25, i64 0, i64 1
  %27 = getelementptr inbounds [15 x ptr], ptr %26, i64 0, i64 12
  store ptr @dc_128_8x8_c, ptr %27, align 8, !tbaa !9
  %28 = load ptr, ptr %2, align 8, !tbaa !4
  %29 = getelementptr inbounds nuw %struct.VP9DSPContext, ptr %28, i32 0, i32 0
  %30 = getelementptr inbounds [4 x [15 x ptr]], ptr %29, i64 0, i64 1
  %31 = getelementptr inbounds [15 x ptr], ptr %30, i64 0, i64 13
  store ptr @dc_127_8x8_c, ptr %31, align 8, !tbaa !9
  %32 = load ptr, ptr %2, align 8, !tbaa !4
  %33 = getelementptr inbounds nuw %struct.VP9DSPContext, ptr %32, i32 0, i32 0
  %34 = getelementptr inbounds [4 x [15 x ptr]], ptr %33, i64 0, i64 1
  %35 = getelementptr inbounds [15 x ptr], ptr %34, i64 0, i64 14
  store ptr @dc_129_8x8_c, ptr %35, align 8, !tbaa !9
  %36 = load ptr, ptr %2, align 8, !tbaa !4
  %37 = getelementptr inbounds nuw %struct.VP9DSPContext, ptr %36, i32 0, i32 0
  %38 = getelementptr inbounds [4 x [15 x ptr]], ptr %37, i64 0, i64 2
  %39 = getelementptr inbounds [15 x ptr], ptr %38, i64 0, i64 9
  store ptr @tm_16x16_c, ptr %39, align 8, !tbaa !9
  %40 = load ptr, ptr %2, align 8, !tbaa !4
  %41 = getelementptr inbounds nuw %struct.VP9DSPContext, ptr %40, i32 0, i32 0
  %42 = getelementptr inbounds [4 x [15 x ptr]], ptr %41, i64 0, i64 2
  %43 = getelementptr inbounds [15 x ptr], ptr %42, i64 0, i64 12
  store ptr @dc_128_16x16_c, ptr %43, align 8, !tbaa !9
  %44 = load ptr, ptr %2, align 8, !tbaa !4
  %45 = getelementptr inbounds nuw %struct.VP9DSPContext, ptr %44, i32 0, i32 0
  %46 = getelementptr inbounds [4 x [15 x ptr]], ptr %45, i64 0, i64 2
  %47 = getelementptr inbounds [15 x ptr], ptr %46, i64 0, i64 13
  store ptr @dc_127_16x16_c, ptr %47, align 8, !tbaa !9
  %48 = load ptr, ptr %2, align 8, !tbaa !4
  %49 = getelementptr inbounds nuw %struct.VP9DSPContext, ptr %48, i32 0, i32 0
  %50 = getelementptr inbounds [4 x [15 x ptr]], ptr %49, i64 0, i64 2
  %51 = getelementptr inbounds [15 x ptr], ptr %50, i64 0, i64 14
  store ptr @dc_129_16x16_c, ptr %51, align 8, !tbaa !9
  %52 = load ptr, ptr %2, align 8, !tbaa !4
  %53 = getelementptr inbounds nuw %struct.VP9DSPContext, ptr %52, i32 0, i32 0
  %54 = getelementptr inbounds [4 x [15 x ptr]], ptr %53, i64 0, i64 3
  %55 = getelementptr inbounds [15 x ptr], ptr %54, i64 0, i64 9
  store ptr @tm_32x32_c, ptr %55, align 8, !tbaa !9
  %56 = load ptr, ptr %2, align 8, !tbaa !4
  %57 = getelementptr inbounds nuw %struct.VP9DSPContext, ptr %56, i32 0, i32 0
  %58 = getelementptr inbounds [4 x [15 x ptr]], ptr %57, i64 0, i64 3
  %59 = getelementptr inbounds [15 x ptr], ptr %58, i64 0, i64 12
  store ptr @dc_128_32x32_c, ptr %59, align 8, !tbaa !9
  %60 = load ptr, ptr %2, align 8, !tbaa !4
  %61 = getelementptr inbounds nuw %struct.VP9DSPContext, ptr %60, i32 0, i32 0
  %62 = getelementptr inbounds [4 x [15 x ptr]], ptr %61, i64 0, i64 3
  %63 = getelementptr inbounds [15 x ptr], ptr %62, i64 0, i64 13
  store ptr @dc_127_32x32_c, ptr %63, align 8, !tbaa !9
  %64 = load ptr, ptr %2, align 8, !tbaa !4
  %65 = getelementptr inbounds nuw %struct.VP9DSPContext, ptr %64, i32 0, i32 0
  %66 = getelementptr inbounds [4 x [15 x ptr]], ptr %65, i64 0, i64 3
  %67 = getelementptr inbounds [15 x ptr], ptr %66, i64 0, i64 14
  store ptr @dc_129_32x32_c, ptr %67, align 8, !tbaa !9
  ret void
}