; Function Attrs: cold nounwind optsize uwtable
define internal fastcc void @ff_vp9dsp_intrapred_init_12(ptr noundef %0) unnamed_addr #0 {
  tail call void @ff_vp9dsp_intrapred_init_10(ptr noundef %0) #11
  %2 = getelementptr inbounds nuw i8, ptr %0, i64 72
  store ptr @tm_4x4_c, ptr %2, align 8, !tbaa !4
  %3 = getelementptr inbounds nuw i8, ptr %0, i64 96
  store ptr @dc_128_4x4_c, ptr %3, align 8, !tbaa !4
  %4 = getelementptr inbounds nuw i8, ptr %0, i64 104
  store ptr @dc_127_4x4_c, ptr %4, align 8, !tbaa !4
  %5 = getelementptr inbounds nuw i8, ptr %0, i64 112
  store ptr @dc_129_4x4_c, ptr %5, align 8, !tbaa !4
  %6 = getelementptr inbounds nuw i8, ptr %0, i64 192
  store ptr @tm_8x8_c, ptr %6, align 8, !tbaa !4
  %7 = getelementptr inbounds nuw i8, ptr %0, i64 216
  store ptr @dc_128_8x8_c, ptr %7, align 8, !tbaa !4
  %8 = getelementptr inbounds nuw i8, ptr %0, i64 224
  store ptr @dc_127_8x8_c, ptr %8, align 8, !tbaa !4
  %9 = getelementptr inbounds nuw i8, ptr %0, i64 232
  store ptr @dc_129_8x8_c, ptr %9, align 8, !tbaa !4
  %10 = getelementptr inbounds nuw i8, ptr %0, i64 312
  store ptr @tm_16x16_c, ptr %10, align 8, !tbaa !4
  %11 = getelementptr inbounds nuw i8, ptr %0, i64 336
  store ptr @dc_128_16x16_c, ptr %11, align 8, !tbaa !4
  %12 = getelementptr inbounds nuw i8, ptr %0, i64 344
  store ptr @dc_127_16x16_c, ptr %12, align 8, !tbaa !4
  %13 = getelementptr inbounds nuw i8, ptr %0, i64 352
  store ptr @dc_129_16x16_c, ptr %13, align 8, !tbaa !4
  %14 = getelementptr inbounds nuw i8, ptr %0, i64 432
  store ptr @tm_32x32_c, ptr %14, align 8, !tbaa !4
  %15 = getelementptr inbounds nuw i8, ptr %0, i64 456
  store ptr @dc_128_32x32_c, ptr %15, align 8, !tbaa !4
  %16 = getelementptr inbounds nuw i8, ptr %0, i64 464
  store ptr @dc_127_32x32_c, ptr %16, align 8, !tbaa !4
  %17 = getelementptr inbounds nuw i8, ptr %0, i64 472
  store ptr @dc_129_32x32_c, ptr %17, align 8, !tbaa !4
  ret void
}